target datalayout = "e-m:e-p270:32:32-p271:32:32-p272:64:64-i64:64-i128:128-f80:128-n8:16:32:64-S128"
target triple = "x86_64-pc-linux-gnu"

%class.ctx_simplify_tactic = type { %class.tactic.base, ptr, %class.params_ref }
%class.tactic.base = type <{ %"class.user_propagator::core", i32 }>
%"class.user_propagator::core" = type { ptr }
%class.params_ref = type { ptr }
%class.ref = type { ptr }
%class.goal = type <{ ptr, %class.ref.41, %class.ref.42, %class.ref.43, i32, [4 x i8], %"class.std::__cxx11::basic_string", %"class.parray_manager<ast_manager::expr_array_config>::ref", %"class.parray_manager<ast_manager::expr_array_config>::ref", %"class.parray_manager<ast_manager::expr_dependency_array_config>::ref", i32, [4 x i8] }>
%class.ref.41 = type { ptr }
%class.ref.42 = type { ptr }
%class.ref.43 = type { ptr }
%"class.std::__cxx11::basic_string" = type { %"struct.std::__cxx11::basic_string<char>::_Alloc_hider", i64, %union.anon }
%"struct.std::__cxx11::basic_string<char>::_Alloc_hider" = type { ptr }
%union.anon = type { i64, [8 x i8] }
%"class.parray_manager<ast_manager::expr_array_config>::ref" = type <{ ptr, i32, [4 x i8] }>
%"class.parray_manager<ast_manager::expr_dependency_array_config>::ref" = type <{ ptr, i32, [4 x i8] }>
%class.ref_buffer_core = type { %class.ptr_buffer }
%class.ptr_buffer = type { %class.buffer }
%class.buffer = type { ptr, i32, i32, [128 x i8] }

; Function Attrs: mustprogress uwtable
define linkonce_odr hidden void @_Z13dealloc_svectIP4goalEvPT_(ptr noundef %0) #4 comdat {
  %2 = alloca ptr, align 8
  store ptr %0, ptr %2, align 8, !tbaa !514
  %3 = load ptr, ptr %2, align 8, !tbaa !514
  %4 = icmp eq ptr %3, null
  br i1 %4, label %5, label %6

5:                                                ; preds = %1
  br label %8

6:                                                ; preds = %1
  %7 = load ptr, ptr %2, align 8, !tbaa !514
  call void @_ZN6memory10deallocateEPv(ptr noundef %7)
  br label %8

8:                                                ; preds = %6, %5
  ret void
}

; Function Attrs: mustprogress uwtable
define linkonce_odr hidden void @_ZN6bufferIP4goalLb0ELj16EE11free_memoryEv(ptr noundef nonnull align 8 dereferenceable(144) %0) #4 comdat align 2 {
  %2 = alloca ptr, align 8
  store ptr %0, ptr %2, align 8, !tbaa !512
  %3 = load ptr, ptr %2, align 8
  %4 = getelementptr inbounds nuw %class.buffer, ptr %3, i32 0, i32 0
  %5 = load ptr, ptr %4, align 8, !tbaa !519
  %6 = getelementptr inbounds nuw %class.buffer, ptr %3, i32 0, i32 3
  %7 = getelementptr inbounds [128 x i8], ptr %6, i64 0, i64 0
  %8 = icmp ne ptr %5, %7
  br i1 %8, label %9, label %12

9:                                                ; preds = %1
  %10 = getelementptr inbounds nuw %class.buffer, ptr %3, i32 0, i32 0
  %11 = load ptr, ptr %10, align 8, !tbaa !519
  call void @_Z13dealloc_svectIP4goalEvPT_(ptr noundef %11)
  br label %12

12:                                               ; preds = %9, %1
  ret void
}

; Function Attrs: mustprogress nounwind uwtable
define linkonce_odr hidden void @_ZN4goal7inc_refEv(ptr noundef nonnull align 8 dereferenceable(124) %0) #6 comdat align 2 {
  %2 = alloca ptr, align 8
  store ptr %0, ptr %2, align 8, !tbaa !175
  %3 = load ptr, ptr %2, align 8
  %4 = getelementptr inbounds nuw %class.goal, ptr %3, i32 0, i32 4
  %5 = load i32, ptr %4, align 8, !tbaa !520
  %6 = add i32 %5, 1
  store i32 %6, ptr %4, align 8, !tbaa !520
  ret void
}

; Function Attrs: mustprogress uwtable
define linkonce_odr hidden void @_ZN6bufferIP4goalLb0ELj16EE6expandEv(ptr noundef nonnull align 8 dereferenceable(144) %0) #4 comdat align 2 {
  %2 = alloca ptr, align 8
  %3 = alloca i32, align 4
  %4 = alloca ptr, align 8
  %5 = alloca i32, align 4
  store ptr %0, ptr %2, align 8, !tbaa !512
  %6 = load ptr, ptr %2, align 8
  call void @llvm.lifetime.start.p0(i64 4, ptr %3) #3
  %7 = getelementptr inbounds nuw %class.buffer, ptr %6, i32 0, i32 2
  %8 = load i32, ptr %7, align 4, !tbaa !518
  %9 = shl i32 %8, 1
  store i32 %9, ptr %3, align 4, !tbaa !48
  call void @llvm.lifetime.start.p0(i64 8, ptr %4) #3
  %10 = load i32, ptr %3, align 4, !tbaa !48
  %11 = zext i32 %10 to i64
  %12 = mul i64 8, %11
  %13 = call noalias noundef ptr @_ZN6memory8allocateEm(i64 noundef %12)
  store ptr %13, ptr %4, align 8, !tbaa !514
  call void @llvm.lifetime.start.p0(i64 4, ptr %5) #3
  store i32 0, ptr %5, align 4, !tbaa !48
  br label %14

14:                                               ; preds = %31, %1
  %15 = load i32, ptr %5, align 4, !tbaa !48
  %16 = getelementptr inbounds nuw %class.buffer, ptr %6, i32 0, i32 1
  %17 = load i32, ptr %16, align 8, !tbaa !516
  %18 = icmp ult i32 %15, %17
  br i1 %18, label %20, label %19

19:                                               ; preds = %14
  call void @llvm.lifetime.end.p0(i64 4, ptr %5) #3
  br label %34

20:                                               ; preds = %14
  %21 = load ptr, ptr %4, align 8, !tbaa !514
  %22 = load i32, ptr %5, align 4, !tbaa !48
  %23 = zext i32 %22 to i64
  %24 = getelementptr inbounds nuw ptr, ptr %21, i64 %23
  %25 = getelementptr inbounds nuw %class.buffer, ptr %6, i32 0, i32 0
  %26 = load ptr, ptr %25, align 8, !tbaa !519
  %27 = load i32, ptr %5, align 4, !tbaa !48
  %28 = zext i32 %27 to i64
  %29 = getelementptr inbounds nuw ptr, ptr %26, i64 %28
  %30 = load ptr, ptr %29, align 8, !tbaa !175
  store ptr %30, ptr %24, align 8, !tbaa !175
  br label %31

31:                                               ; preds = %20
  %32 = load i32, ptr %5, align 4, !tbaa !48
  %33 = add i32 %32, 1
  store i32 %33, ptr %5, align 4, !tbaa !48
  br label %14, !llvm.loop !521

34:                                               ; preds = %19
  call void @_ZN6bufferIP4goalLb0ELj16EE11free_memoryEv(ptr noundef nonnull align 8 dereferenceable(144) %6)
  %35 = load ptr, ptr %4, align 8, !tbaa !514
  %36 = getelementptr inbounds nuw %class.buffer, ptr %6, i32 0, i32 0
  store ptr %35, ptr %36, align 8, !tbaa !519
  %37 = load i32, ptr %3, align 4, !tbaa !48
  %38 = getelementptr inbounds nuw %class.buffer, ptr %6, i32 0, i32 2
  store i32 %37, ptr %38, align 4, !tbaa !518
  call void @llvm.lifetime.end.p0(i64 8, ptr %4) #3
  call void @llvm.lifetime.end.p0(i64 4, ptr %3) #3
  ret void
}

; Function Attrs: mustprogress uwtable
define linkonce_odr hidden void @_ZN21ref_unmanaged_wrapperI4goalE7inc_refEPS0_(ptr noundef %0) #4 comdat align 2 {
  %2 = alloca ptr, align 8
  store ptr %0, ptr %2, align 8, !tbaa !175
  %3 = load ptr, ptr %2, align 8, !tbaa !175
  %4 = icmp ne ptr %3, null
  br i1 %4, label %5, label %7

5:                                                ; preds = %1
  %6 = load ptr, ptr %2, align 8, !tbaa !175
  call void @_ZN4goal7inc_refEv(ptr noundef nonnull align 8 dereferenceable(124) %6)
  br label %7

7:                                                ; preds = %5, %1
  ret void
}

; Function Attrs: mustprogress uwtable
define linkonce_odr hidden void @_ZN6bufferIP4goalLb0ELj16EE9push_backERKS1_(ptr noundef nonnull align 8 dereferenceable(144) %0, ptr noundef nonnull align 8 dereferenceable(8) %1) #4 comdat align 2 {
  %3 = alloca ptr, align 8
  %4 = alloca ptr, align 8
  store ptr %0, ptr %3, align 8, !tbaa !512
  store ptr %1, ptr %4, align 8, !tbaa !514
  %5 = load ptr, ptr %3, align 8
  %6 = getelementptr inbounds nuw %class.buffer, ptr %5, i32 0, i32 1
  %7 = load i32, ptr %6, align 8, !tbaa !516
  %8 = getelementptr inbounds nuw %class.buffer, ptr %5, i32 0, i32 2
  %9 = load i32, ptr %8, align 4, !tbaa !518
  %10 = icmp uge i32 %7, %9
  br i1 %10, label %11, label %12

11:                                               ; preds = %2
  call void @_ZN6bufferIP4goalLb0ELj16EE6expandEv(ptr noundef nonnull align 8 dereferenceable(144) %5)
  br label %12

12:                                               ; preds = %11, %2
  %13 = getelementptr inbounds nuw %class.buffer, ptr %5, i32 0, i32 0
  %14 = load ptr, ptr %13, align 8, !tbaa !519
  %15 = getelementptr inbounds nuw %class.buffer, ptr %5, i32 0, i32 1
  %16 = load i32, ptr %15, align 8, !tbaa !516
  %17 = zext i32 %16 to i64
  %18 = getelementptr inbounds nuw ptr, ptr %14, i64 %17
  %19 = load ptr, ptr %4, align 8, !tbaa !514
  %20 = load ptr, ptr %19, align 8, !tbaa !175
  store ptr %20, ptr %18, align 8, !tbaa !175
  %21 = getelementptr inbounds nuw %class.buffer, ptr %5, i32 0, i32 1
  %22 = load i32, ptr %21, align 8, !tbaa !516
  %23 = add i32 %22, 1
  store i32 %23, ptr %21, align 8, !tbaa !516
  ret void
}

; Function Attrs: mustprogress uwtable
define linkonce_odr hidden void @_ZN15ref_buffer_coreI4goal21ref_unmanaged_wrapperIS0_ELj16EE7inc_refEPS0_(ptr noundef nonnull align 8 dereferenceable(144) %0, ptr noundef %1) #4 comdat align 2 {
  %3 = alloca ptr, align 8
  %4 = alloca ptr, align 8
  store ptr %0, ptr %3, align 8, !tbaa !181
  store ptr %1, ptr %4, align 8, !tbaa !175
  %5 = load ptr, ptr %4, align 8, !tbaa !175
  call void @_ZN21ref_unmanaged_wrapperI4goalE7inc_refEPS0_(ptr noundef %5)
  ret void
}

; Function Attrs: mustprogress uwtable
define linkonce_odr hidden void @_ZN15ref_buffer_coreI4goal21ref_unmanaged_wrapperIS0_ELj16EE9push_backEPS0_(ptr noundef nonnull align 8 dereferenceable(144) %0, ptr noundef %1) #4 comdat align 2 {
  %3 = alloca ptr, align 8
  %4 = alloca ptr, align 8
  store ptr %0, ptr %3, align 8, !tbaa !181
  store ptr %1, ptr %4, align 8, !tbaa !175
  %5 = load ptr, ptr %3, align 8
  %6 = load ptr, ptr %4, align 8, !tbaa !175
  call void @_ZN15ref_buffer_coreI4goal21ref_unmanaged_wrapperIS0_ELj16EE7inc_refEPS0_(ptr noundef nonnull align 8 dereferenceable(144) %5, ptr noundef %6)
  %7 = getelementptr inbounds nuw %class.ref_buffer_core, ptr %5, i32 0, i32 0
  call void @_ZN6bufferIP4goalLb0ELj16EE9push_backERKS1_(ptr noundef nonnull align 8 dereferenceable(144) %7, ptr noundef nonnull align 8 dereferenceable(8) %4)
  ret void
}

; Function Attrs: mustprogress nounwind uwtable
define linkonce_odr hidden void @_ZN4goal9inc_depthEv(ptr noundef nonnull align 8 dereferenceable(124) %0) #6 comdat align 2 {
  %2 = alloca ptr, align 8
  store ptr %0, ptr %2, align 8, !tbaa !175
  %3 = load ptr, ptr %2, align 8
  %4 = getelementptr inbounds nuw %class.goal, ptr %3, i32 0, i32 10
  %5 = load i32, ptr %4, align 8
  %6 = and i32 %5, 67108863
  %7 = add i32 %6, 1
  %8 = load i32, ptr %4, align 8
  %9 = and i32 %7, 67108863
  %10 = and i32 %8, -67108864
  %11 = or i32 %10, %9
  store i32 %11, ptr %4, align 8
  ret void
}

; Function Attrs: mustprogress nounwind uwtable
define linkonce_odr hidden noundef ptr @_ZNK3refI4goalEptEv(ptr noundef nonnull align 8 dereferenceable(8) %0) #6 comdat align 2 {
  %2 = alloca ptr, align 8
  store ptr %0, ptr %2, align 8, !tbaa !171
  %3 = load ptr, ptr %2, align 8
  %4 = getelementptr inbounds nuw %class.ref, ptr %3, i32 0, i32 0
  %5 = load ptr, ptr %4, align 8, !tbaa !179
  ret ptr %5
}

; Function Attrs: mustprogress nounwind uwtable
define linkonce_odr hidden noundef ptr @_ZNK3refI4goalE3getEv(ptr noundef nonnull align 8 dereferenceable(8) %0) #6 comdat align 2 {
  %2 = alloca ptr, align 8
  store ptr %0, ptr %2, align 8, !tbaa !171
  %3 = load ptr, ptr %2, align 8
  %4 = getelementptr inbounds nuw %class.ref, ptr %3, i32 0, i32 0
  %5 = load ptr, ptr %4, align 8, !tbaa !179
  ret ptr %5
}

; Function Attrs: mustprogress uwtable
define hidden void @_ZN19ctx_simplify_tacticclERK3refI4goalER11sref_bufferIS1_Lj16EE(ptr noundef nonnull align 8 dereferenceable(32) %0, ptr noundef nonnull align 8 dereferenceable(8) %1, ptr noundef nonnull align 8 dereferenceable(144) %2) unnamed_addr #4 align 2 {
  %4 = alloca ptr, align 8
  %5 = alloca ptr, align 8
  %6 = alloca ptr, align 8
  store ptr %0, ptr %4, align 8, !tbaa !136
  store ptr %1, ptr %5, align 8, !tbaa !171
  store ptr %2, ptr %6, align 8, !tbaa !173
  %7 = load ptr, ptr %4, align 8
  %8 = getelementptr inbounds nuw %class.ctx_simplify_tactic, ptr %7, i32 0, i32 1
  %9 = load ptr, ptr %8, align 8, !tbaa !138
  %10 = load ptr, ptr %5, align 8, !tbaa !171
  %11 = call noundef ptr @_ZNK3refI4goalE3getEv(ptr noundef nonnull align 8 dereferenceable(8) %10)
  call void @_ZN19ctx_simplify_tactic3impclER4goal(ptr noundef nonnull align 8 dereferenceable(641) %9, ptr noundef nonnull align 8 dereferenceable(124) %11)
  %12 = load ptr, ptr %5, align 8, !tbaa !171
  %13 = call noundef ptr @_ZNK3refI4goalEptEv(ptr noundef nonnull align 8 dereferenceable(8) %12)
  call void @_ZN4goal9inc_depthEv(ptr noundef nonnull align 8 dereferenceable(124) %13)
  %14 = load ptr, ptr %6, align 8, !tbaa !173
  %15 = load ptr, ptr %5, align 8, !tbaa !171
  %16 = call noundef ptr @_ZNK3refI4goalE3getEv(ptr noundef nonnull align 8 dereferenceable(8) %15)
  call void @_ZN15ref_buffer_coreI4goal21ref_unmanaged_wrapperIS0_ELj16EE9push_backEPS0_(ptr noundef nonnull align 8 dereferenceable(144) %14, ptr noundef %16)
  ret void
}