; Function Attrs: mustprogress uwtable
define hidden void @_ZN19ctx_simplify_tacticclERK3refI4goalER11sref_bufferIS1_Lj16EE(ptr noundef nonnull readonly align 8 captures(none) dereferenceable(32) %0, ptr noundef nonnull readonly align 8 captures(none) dereferenceable(8) %1, ptr noundef nonnull align 8 captures(address) dereferenceable(144) %2) unnamed_addr #3 align 2 {
  %4 = getelementptr inbounds nuw i8, ptr %0, i64 16
  %5 = load ptr, ptr %4, align 8, !tbaa !86
  %6 = load ptr, ptr %1, align 8, !tbaa !118
  tail call void @_ZN19ctx_simplify_tactic3impclER4goal(ptr noundef nonnull align 8 dereferenceable(641) %5, ptr noundef nonnull align 8 dereferenceable(124) %6)
  %7 = load ptr, ptr %1, align 8, !tbaa !118
  %8 = getelementptr inbounds nuw i8, ptr %7, i64 120
  %9 = load i32, ptr %8, align 8
  %10 = add i32 %9, 1
  %11 = and i32 %10, 67108863
  %12 = and i32 %9, -67108864
  %13 = or disjoint i32 %11, %12
  store i32 %13, ptr %8, align 8
  %14 = load ptr, ptr %1, align 8, !tbaa !118
  %.not.i.i.i = icmp eq ptr %14, null
  br i1 %.not.i.i.i, label %_ZN15ref_buffer_coreI4goal21ref_unmanaged_wrapperIS0_ELj16EE7inc_refEPS0_.exit.i, label %15

15:                                               ; preds = %3
  %16 = getelementptr inbounds nuw i8, ptr %14, i64 32
  %17 = load i32, ptr %16, align 8, !tbaa !121
  %18 = add i32 %17, 1
  store i32 %18, ptr %16, align 8, !tbaa !121
  br label %_ZN15ref_buffer_coreI4goal21ref_unmanaged_wrapperIS0_ELj16EE7inc_refEPS0_.exit.i

_ZN15ref_buffer_coreI4goal21ref_unmanaged_wrapperIS0_ELj16EE7inc_refEPS0_.exit.i: ; preds = %15, %3
  %19 = getelementptr inbounds nuw i8, ptr %2, i64 8
  %20 = load i32, ptr %19, align 8, !tbaa !135
  %21 = getelementptr inbounds nuw i8, ptr %2, i64 12
  %22 = load i32, ptr %21, align 4, !tbaa !138
  %.not.i.i = icmp ult i32 %20, %22
  br i1 %.not.i.i, label %._crit_edge.i.i, label %23

._crit_edge.i.i:                                  ; preds = %_ZN15ref_buffer_coreI4goal21ref_unmanaged_wrapperIS0_ELj16EE7inc_refEPS0_.exit.i
  %.pre.i.i = load ptr, ptr %2, align 8, !tbaa !139
  br label %_ZN15ref_buffer_coreI4goal21ref_unmanaged_wrapperIS0_ELj16EE9push_backEPS0_.exit

23:                                               ; preds = %_ZN15ref_buffer_coreI4goal21ref_unmanaged_wrapperIS0_ELj16EE7inc_refEPS0_.exit.i
  %24 = shl i32 %22, 1
  %25 = zext i32 %24 to i64
  %26 = shl nuw nsw i64 %25, 3
  %27 = tail call noalias noundef ptr @_ZN6memory8allocateEm(i64 noundef %26)
  %28 = load i32, ptr %19, align 8, !tbaa !135
  %.not.i.i1.i = icmp eq i32 %28, 0
  %.pre.i.i.i = load ptr, ptr %2, align 8, !tbaa !139
  br i1 %.not.i.i1.i, label %._crit_edge.i.i.i, label %.lr.ph.i.i.i

.lr.ph.i.i.i:                                     ; preds = %23
  %wide.trip.count.i.i.i = zext i32 %28 to i64
  br label %32

._crit_edge.i.i.i:                                ; preds = %32, %23
  %29 = getelementptr inbounds nuw i8, ptr %2, i64 16
  %.not.i.i.i.i = icmp eq ptr %.pre.i.i.i, %29
  %30 = icmp eq ptr %.pre.i.i.i, null
  %or.cond.i.i.i.i = or i1 %.not.i.i.i.i, %30
  br i1 %or.cond.i.i.i.i, label %_ZN6bufferIP4goalLb0ELj16EE6expandEv.exit.i.i, label %31

31:                                               ; preds = %._crit_edge.i.i.i
  tail call void @_ZN6memory10deallocateEPv(ptr noundef nonnull %.pre.i.i.i)
  %.pre2.pre.i.i = load i32, ptr %19, align 8, !tbaa !135
  br label %_ZN6bufferIP4goalLb0ELj16EE6expandEv.exit.i.i

32:                                               ; preds = %32, %.lr.ph.i.i.i
  %indvars.iv.i.i.i = phi i64 [ 0, %.lr.ph.i.i.i ], [ %indvars.iv.next.i.i.i, %32 ]
  %33 = getelementptr inbounds nuw ptr, ptr %27, i64 %indvars.iv.i.i.i
  %34 = getelementptr inbounds nuw ptr, ptr %.pre.i.i.i, i64 %indvars.iv.i.i.i
  %35 = load ptr, ptr %34, align 8, !tbaa !140
  store ptr %35, ptr %33, align 8, !tbaa !140
  %indvars.iv.next.i.i.i = add nuw nsw i64 %indvars.iv.i.i.i, 1
  %exitcond.not.i.i.i = icmp eq i64 %indvars.iv.next.i.i.i, %wide.trip.count.i.i.i
  br i1 %exitcond.not.i.i.i, label %._crit_edge.i.i.i, label %32, !llvm.loop !141

_ZN6bufferIP4goalLb0ELj16EE6expandEv.exit.i.i:    ; preds = %31, %._crit_edge.i.i.i
  %.pre2.i.i = phi i32 [ %28, %._crit_edge.i.i.i ], [ %.pre2.pre.i.i, %31 ]
  store ptr %27, ptr %2, align 8, !tbaa !139
  store i32 %24, ptr %21, align 4, !tbaa !138
  br label %_ZN15ref_buffer_coreI4goal21ref_unmanaged_wrapperIS0_ELj16EE9push_backEPS0_.exit

_ZN15ref_buffer_coreI4goal21ref_unmanaged_wrapperIS0_ELj16EE9push_backEPS0_.exit: ; preds = %._crit_edge.i.i, %_ZN6bufferIP4goalLb0ELj16EE6expandEv.exit.i.i
  %36 = phi i32 [ %20, %._crit_edge.i.i ], [ %.pre2.i.i, %_ZN6bufferIP4goalLb0ELj16EE6expandEv.exit.i.i ]
  %37 = phi ptr [ %.pre.i.i, %._crit_edge.i.i ], [ %27, %_ZN6bufferIP4goalLb0ELj16EE6expandEv.exit.i.i ]
  %38 = zext i32 %36 to i64
  %39 = getelementptr inbounds nuw ptr, ptr %37, i64 %38
  store ptr %14, ptr %39, align 8, !tbaa !140
  %40 = add i32 %36, 1
  store i32 %40, ptr %19, align 8, !tbaa !135
  ret void
}